target datalayout = "e-m:e-p270:32:32-p271:32:32-p272:64:64-i64:64-i128:128-f80:128-n8:16:32:64-S128"
target triple = "x86_64-pc-linux-gnu"

%struct.ThreadData = type { ptr, ptr }
%struct.AVFilterLink = type { ptr, ptr, ptr, ptr, i32, i32, i32, i32, %struct.AVRational, i32, i32, i32, %struct.AVChannelLayout, %struct.AVRational, ptr, i32, %struct.AVFilterFormatsConfig, %struct.AVFilterFormatsConfig }
%struct.AVChannelLayout = type { i32, i32, %union.anon.1, ptr }
%union.anon.1 = type { i64 }
%struct.AVRational = type { i32, i32 }
%struct.AVFilterFormatsConfig = type { ptr, ptr, ptr, ptr, ptr }
%struct.AVFilterContext = type { ptr, ptr, ptr, ptr, ptr, i32, ptr, ptr, i32, ptr, ptr, i32, i32, ptr, ptr, ptr, ptr, i32, ptr, i32, i32 }
%struct.PixelizeContext = type { ptr, [4 x i32], [4 x i32], i32, i32, i32, i32, [4 x i32], [4 x i32], [4 x i32], i32, i32, [3 x ptr] }

; Function Attrs: nounwind uwtable
define internal i32 @filter_frame(ptr noundef %0, ptr noundef %1) #1 {
  %3 = alloca i32, align 4
  %4 = alloca ptr, align 8
  %5 = alloca ptr, align 8
  %6 = alloca ptr, align 8
  %7 = alloca ptr, align 8
  %8 = alloca ptr, align 8
  %9 = alloca %struct.ThreadData, align 8
  %10 = alloca ptr, align 8
  %11 = alloca i32, align 4
  %12 = alloca i32, align 4
  store ptr %0, ptr %4, align 8, !tbaa !4
  store ptr %1, ptr %5, align 8, !tbaa !9
  call void @llvm.lifetime.start.p0(i64 8, ptr %6) #5
  %13 = load ptr, ptr %4, align 8, !tbaa !4
  %14 = getelementptr inbounds nuw %struct.AVFilterLink, ptr %13, i32 0, i32 2
  %15 = load ptr, ptr %14, align 8, !tbaa !11
  store ptr %15, ptr %6, align 8, !tbaa !23
  call void @llvm.lifetime.start.p0(i64 8, ptr %7) #5
  %16 = load ptr, ptr %6, align 8, !tbaa !23
  %17 = getelementptr inbounds nuw %struct.AVFilterContext, ptr %16, i32 0, i32 7
  %18 = load ptr, ptr %17, align 8, !tbaa !24
  %19 = getelementptr inbounds ptr, ptr %18, i64 0
  %20 = load ptr, ptr %19, align 8, !tbaa !4
  store ptr %20, ptr %7, align 8, !tbaa !4
  call void @llvm.lifetime.start.p0(i64 8, ptr %8) #5
  %21 = load ptr, ptr %6, align 8, !tbaa !23
  %22 = getelementptr inbounds nuw %struct.AVFilterContext, ptr %21, i32 0, i32 9
  %23 = load ptr, ptr %22, align 8, !tbaa !34
  store ptr %23, ptr %8, align 8, !tbaa !35
  call void @llvm.lifetime.start.p0(i64 16, ptr %9) #5
  call void @llvm.lifetime.start.p0(i64 8, ptr %10) #5
  call void @llvm.lifetime.start.p0(i64 4, ptr %11) #5
  %24 = load ptr, ptr %8, align 8, !tbaa !35
  %25 = getelementptr inbounds nuw %struct.PixelizeContext, ptr %24, i32 0, i32 1
  %26 = getelementptr inbounds [4 x i32], ptr %25, i64 0, i64 0
  %27 = load i32, ptr %26, align 8, !tbaa !37
  %28 = load ptr, ptr %8, align 8, !tbaa !35
  %29 = getelementptr inbounds nuw %struct.PixelizeContext, ptr %28, i32 0, i32 10
  %30 = load i32, ptr %29, align 8, !tbaa !38
  %31 = ashr i32 %27, %30
  %32 = icmp sgt i32 1, %31
  br i1 %32, label %33, label %34

33:                                               ; preds = %2
  br label %43

34:                                               ; preds = %2
  %35 = load ptr, ptr %8, align 8, !tbaa !35
  %36 = getelementptr inbounds nuw %struct.PixelizeContext, ptr %35, i32 0, i32 1
  %37 = getelementptr inbounds [4 x i32], ptr %36, i64 0, i64 0
  %38 = load i32, ptr %37, align 8, !tbaa !37
  %39 = load ptr, ptr %8, align 8, !tbaa !35
  %40 = getelementptr inbounds nuw %struct.PixelizeContext, ptr %39, i32 0, i32 10
  %41 = load i32, ptr %40, align 8, !tbaa !38
  %42 = ashr i32 %38, %41
  br label %43

43:                                               ; preds = %34, %33
  %44 = phi i32 [ 1, %33 ], [ %42, %34 ]
  %45 = load ptr, ptr %8, align 8, !tbaa !35
  %46 = getelementptr inbounds nuw %struct.PixelizeContext, ptr %45, i32 0, i32 1
  %47 = getelementptr inbounds [4 x i32], ptr %46, i64 0, i64 2
  store i32 %44, ptr %47, align 8, !tbaa !37
  %48 = load ptr, ptr %8, align 8, !tbaa !35
  %49 = getelementptr inbounds nuw %struct.PixelizeContext, ptr %48, i32 0, i32 1
  %50 = getelementptr inbounds [4 x i32], ptr %49, i64 0, i64 1
  store i32 %44, ptr %50, align 4, !tbaa !37
  %51 = load ptr, ptr %8, align 8, !tbaa !35
  %52 = getelementptr inbounds nuw %struct.PixelizeContext, ptr %51, i32 0, i32 1
  %53 = getelementptr inbounds [4 x i32], ptr %52, i64 0, i64 1
  %54 = load i32, ptr %53, align 4, !tbaa !37
  %55 = load ptr, ptr %8, align 8, !tbaa !35
  %56 = getelementptr inbounds nuw %struct.PixelizeContext, ptr %55, i32 0, i32 10
  %57 = load i32, ptr %56, align 8, !tbaa !38
  %58 = shl i32 %54, %57
  %59 = load ptr, ptr %8, align 8, !tbaa !35
  %60 = getelementptr inbounds nuw %struct.PixelizeContext, ptr %59, i32 0, i32 1
  %61 = getelementptr inbounds [4 x i32], ptr %60, i64 0, i64 0
  store i32 %58, ptr %61, align 8, !tbaa !37
  %62 = load ptr, ptr %8, align 8, !tbaa !35
  %63 = getelementptr inbounds nuw %struct.PixelizeContext, ptr %62, i32 0, i32 1
  %64 = getelementptr inbounds [4 x i32], ptr %63, i64 0, i64 3
  store i32 %58, ptr %64, align 4, !tbaa !37
  %65 = load ptr, ptr %8, align 8, !tbaa !35
  %66 = getelementptr inbounds nuw %struct.PixelizeContext, ptr %65, i32 0, i32 2
  %67 = getelementptr inbounds [4 x i32], ptr %66, i64 0, i64 0
  %68 = load i32, ptr %67, align 8, !tbaa !37
  %69 = load ptr, ptr %8, align 8, !tbaa !35
  %70 = getelementptr inbounds nuw %struct.PixelizeContext, ptr %69, i32 0, i32 11
  %71 = load i32, ptr %70, align 4, !tbaa !40
  %72 = ashr i32 %68, %71
  %73 = icmp sgt i32 1, %72
  br i1 %73, label %74, label %75

74:                                               ; preds = %43
  br label %84

75:                                               ; preds = %43
  %76 = load ptr, ptr %8, align 8, !tbaa !35
  %77 = getelementptr inbounds nuw %struct.PixelizeContext, ptr %76, i32 0, i32 2
  %78 = getelementptr inbounds [4 x i32], ptr %77, i64 0, i64 0
  %79 = load i32, ptr %78, align 8, !tbaa !37
  %80 = load ptr, ptr %8, align 8, !tbaa !35
  %81 = getelementptr inbounds nuw %struct.PixelizeContext, ptr %80, i32 0, i32 11
  %82 = load i32, ptr %81, align 4, !tbaa !40
  %83 = ashr i32 %79, %82
  br label %84

84:                                               ; preds = %75, %74
  %85 = phi i32 [ 1, %74 ], [ %83, %75 ]
  %86 = load ptr, ptr %8, align 8, !tbaa !35
  %87 = getelementptr inbounds nuw %struct.PixelizeContext, ptr %86, i32 0, i32 2
  %88 = getelementptr inbounds [4 x i32], ptr %87, i64 0, i64 2
  store i32 %85, ptr %88, align 8, !tbaa !37
  %89 = load ptr, ptr %8, align 8, !tbaa !35
  %90 = getelementptr inbounds nuw %struct.PixelizeContext, ptr %89, i32 0, i32 2
  %91 = getelementptr inbounds [4 x i32], ptr %90, i64 0, i64 1
  store i32 %85, ptr %91, align 4, !tbaa !37
  %92 = load ptr, ptr %8, align 8, !tbaa !35
  %93 = getelementptr inbounds nuw %struct.PixelizeContext, ptr %92, i32 0, i32 2
  %94 = getelementptr inbounds [4 x i32], ptr %93, i64 0, i64 1
  %95 = load i32, ptr %94, align 4, !tbaa !37
  %96 = load ptr, ptr %8, align 8, !tbaa !35
  %97 = getelementptr inbounds nuw %struct.PixelizeContext, ptr %96, i32 0, i32 11
  %98 = load i32, ptr %97, align 4, !tbaa !40
  %99 = shl i32 %95, %98
  %100 = load ptr, ptr %8, align 8, !tbaa !35
  %101 = getelementptr inbounds nuw %struct.PixelizeContext, ptr %100, i32 0, i32 2
  %102 = getelementptr inbounds [4 x i32], ptr %101, i64 0, i64 0
  store i32 %99, ptr %102, align 8, !tbaa !37
  %103 = load ptr, ptr %8, align 8, !tbaa !35
  %104 = getelementptr inbounds nuw %struct.PixelizeContext, ptr %103, i32 0, i32 2
  %105 = getelementptr inbounds [4 x i32], ptr %104, i64 0, i64 3
  store i32 %99, ptr %105, align 4, !tbaa !37
  %106 = load ptr, ptr %5, align 8, !tbaa !9
  %107 = call i32 @av_frame_is_writable(ptr noundef %106)
  %108 = icmp ne i32 %107, 0
  br i1 %108, label %109, label %111

109:                                              ; preds = %84
  %110 = load ptr, ptr %5, align 8, !tbaa !9
  store ptr %110, ptr %10, align 8, !tbaa !9
  br label %131

111:                                              ; preds = %84
  %112 = load ptr, ptr %7, align 8, !tbaa !4
  %113 = load ptr, ptr %7, align 8, !tbaa !4
  %114 = getelementptr inbounds nuw %struct.AVFilterLink, ptr %113, i32 0, i32 6
  %115 = load i32, ptr %114, align 8, !tbaa !41
  %116 = load ptr, ptr %7, align 8, !tbaa !4
  %117 = getelementptr inbounds nuw %struct.AVFilterLink, ptr %116, i32 0, i32 7
  %118 = load i32, ptr %117, align 4, !tbaa !42
  %119 = call ptr @ff_get_video_buffer(ptr noundef %112, i32 noundef %115, i32 noundef %118)
  store ptr %119, ptr %10, align 8, !tbaa !9
  %120 = load ptr, ptr %10, align 8, !tbaa !9
  %121 = icmp ne ptr %120, null
  br i1 %121, label %123, label %122

122:                                              ; preds = %111
  store i32 -12, ptr %11, align 4, !tbaa !37
  br label %185

123:                                              ; preds = %111
  %124 = load ptr, ptr %10, align 8, !tbaa !9
  %125 = load ptr, ptr %5, align 8, !tbaa !9
  %126 = call i32 @av_frame_copy_props(ptr noundef %124, ptr noundef %125)
  store i32 %126, ptr %11, align 4, !tbaa !37
  %127 = load i32, ptr %11, align 4, !tbaa !37
  %128 = icmp slt i32 %127, 0
  br i1 %128, label %129, label %130

129:                                              ; preds = %123
  call void @av_frame_free(ptr noundef %10)
  br label %185

130:                                              ; preds = %123
  br label %131

131:                                              ; preds = %130, %109
  %132 = load ptr, ptr %10, align 8, !tbaa !9
  %133 = getelementptr inbounds nuw %struct.ThreadData, ptr %9, i32 0, i32 1
  store ptr %132, ptr %133, align 8, !tbaa !43
  %134 = load ptr, ptr %5, align 8, !tbaa !9
  %135 = getelementptr inbounds nuw %struct.ThreadData, ptr %9, i32 0, i32 0
  store ptr %134, ptr %135, align 8, !tbaa !45
  %136 = load ptr, ptr %6, align 8, !tbaa !23
  %137 = load ptr, ptr %8, align 8, !tbaa !35
  %138 = getelementptr inbounds nuw %struct.PixelizeContext, ptr %137, i32 0, i32 9
  %139 = getelementptr inbounds [4 x i32], ptr %138, i64 0, i64 1
  %140 = load i32, ptr %139, align 4, !tbaa !37
  %141 = load ptr, ptr %8, align 8, !tbaa !35
  %142 = getelementptr inbounds nuw %struct.PixelizeContext, ptr %141, i32 0, i32 2
  %143 = getelementptr inbounds [4 x i32], ptr %142, i64 0, i64 1
  %144 = load i32, ptr %143, align 4, !tbaa !37
  %145 = add nsw i32 %140, %144
  %146 = sub nsw i32 %145, 1
  %147 = load ptr, ptr %8, align 8, !tbaa !35
  %148 = getelementptr inbounds nuw %struct.PixelizeContext, ptr %147, i32 0, i32 2
  %149 = getelementptr inbounds [4 x i32], ptr %148, i64 0, i64 1
  %150 = load i32, ptr %149, align 4, !tbaa !37
  %151 = sdiv i32 %146, %150
  %152 = load ptr, ptr %6, align 8, !tbaa !23
  %153 = call i32 @ff_filter_get_nb_threads(ptr noundef %152) #6
  %154 = icmp sgt i32 %151, %153
  br i1 %154, label %155, label %158

155:                                              ; preds = %131
  %156 = load ptr, ptr %6, align 8, !tbaa !23
  %157 = call i32 @ff_filter_get_nb_threads(ptr noundef %156) #6
  br label %174

158:                                              ; preds = %131
  %159 = load ptr, ptr %8, align 8, !tbaa !35
  %160 = getelementptr inbounds nuw %struct.PixelizeContext, ptr %159, i32 0, i32 9
  %161 = getelementptr inbounds [4 x i32], ptr %160, i64 0, i64 1
  %162 = load i32, ptr %161, align 4, !tbaa !37
  %163 = load ptr, ptr %8, align 8, !tbaa !35
  %164 = getelementptr inbounds nuw %struct.PixelizeContext, ptr %163, i32 0, i32 2
  %165 = getelementptr inbounds [4 x i32], ptr %164, i64 0, i64 1
  %166 = load i32, ptr %165, align 4, !tbaa !37
  %167 = add nsw i32 %162, %166
  %168 = sub nsw i32 %167, 1
  %169 = load ptr, ptr %8, align 8, !tbaa !35
  %170 = getelementptr inbounds nuw %struct.PixelizeContext, ptr %169, i32 0, i32 2
  %171 = getelementptr inbounds [4 x i32], ptr %170, i64 0, i64 1
  %172 = load i32, ptr %171, align 4, !tbaa !37
  %173 = sdiv i32 %168, %172
  br label %174

174:                                              ; preds = %158, %155
  %175 = phi i32 [ %157, %155 ], [ %173, %158 ]
  %176 = call i32 @ff_filter_execute(ptr noundef %136, ptr noundef @pixelize_slice, ptr noundef %9, ptr noundef null, i32 noundef %175)
  %177 = load ptr, ptr %10, align 8, !tbaa !9
  %178 = load ptr, ptr %5, align 8, !tbaa !9
  %179 = icmp ne ptr %177, %178
  br i1 %179, label %180, label %181

180:                                              ; preds = %174
  call void @av_frame_free(ptr noundef %5)
  br label %181

181:                                              ; preds = %180, %174
  %182 = load ptr, ptr %7, align 8, !tbaa !4
  %183 = load ptr, ptr %10, align 8, !tbaa !9
  %184 = call i32 @ff_filter_frame(ptr noundef %182, ptr noundef %183)
  store i32 %184, ptr %3, align 4
  store i32 1, ptr %12, align 4
  br label %187

185:                                              ; preds = %129, %122
  call void @av_frame_free(ptr noundef %5)
  %186 = load i32, ptr %11, align 4, !tbaa !37
  store i32 %186, ptr %3, align 4
  store i32 1, ptr %12, align 4
  br label %187

187:                                              ; preds = %185, %181
  call void @llvm.lifetime.end.p0(i64 4, ptr %11) #5
  call void @llvm.lifetime.end.p0(i64 8, ptr %10) #5
  call void @llvm.lifetime.end.p0(i64 16, ptr %9) #5
  call void @llvm.lifetime.end.p0(i64 8, ptr %8) #5
  call void @llvm.lifetime.end.p0(i64 8, ptr %7) #5
  call void @llvm.lifetime.end.p0(i64 8, ptr %6) #5
  %188 = load i32, ptr %3, align 4
  ret i32 %188
}