; Function Attrs: nounwind uwtable
define internal i32 @filter_frame(ptr noundef readonly captures(none) %0, ptr noundef %1) #1 {
  %3 = alloca ptr, align 8
  %4 = alloca %struct.ThreadData, align 8
  %5 = alloca ptr, align 8
  store ptr %1, ptr %3, align 8, !tbaa !4
  %6 = getelementptr inbounds nuw i8, ptr %0, i64 16
  %7 = load ptr, ptr %6, align 8, !tbaa !9
  %8 = getelementptr inbounds nuw i8, ptr %7, i64 56
  %9 = load ptr, ptr %8, align 8, !tbaa !21
  %10 = load ptr, ptr %9, align 8, !tbaa !31
  %11 = getelementptr inbounds nuw i8, ptr %7, i64 72
  %12 = load ptr, ptr %11, align 8, !tbaa !33
  call void @llvm.lifetime.start.p0(i64 16, ptr nonnull %4) #7
  call void @llvm.lifetime.start.p0(i64 8, ptr nonnull %5) #7
  %13 = getelementptr inbounds nuw i8, ptr %12, i64 8
  %14 = load i32, ptr %13, align 8, !tbaa !34
  %15 = getelementptr inbounds nuw i8, ptr %12, i64 104
  %16 = load i32, ptr %15, align 8, !tbaa !35
  %17 = ashr i32 %14, %16
  %spec.select = tail call i32 @llvm.smax.i32(i32 %17, i32 1)
  %18 = getelementptr inbounds nuw i8, ptr %12, i64 16
  store i32 %spec.select, ptr %18, align 8, !tbaa !34
  %19 = getelementptr inbounds nuw i8, ptr %12, i64 12
  store i32 %spec.select, ptr %19, align 4, !tbaa !34
  %20 = shl i32 %spec.select, %16
  store i32 %20, ptr %13, align 8, !tbaa !34
  %21 = getelementptr inbounds nuw i8, ptr %12, i64 20
  store i32 %20, ptr %21, align 4, !tbaa !34
  %22 = getelementptr inbounds nuw i8, ptr %12, i64 24
  %23 = load i32, ptr %22, align 8, !tbaa !34
  %24 = getelementptr inbounds nuw i8, ptr %12, i64 108
  %25 = load i32, ptr %24, align 4, !tbaa !37
  %26 = ashr i32 %23, %25
  %27 = tail call i32 @llvm.smax.i32(i32 %26, i32 1)
  %28 = getelementptr inbounds nuw i8, ptr %12, i64 32
  store i32 %27, ptr %28, align 8, !tbaa !34
  %29 = getelementptr inbounds nuw i8, ptr %12, i64 28
  store i32 %27, ptr %29, align 4, !tbaa !34
  %30 = shl i32 %27, %25
  store i32 %30, ptr %22, align 8, !tbaa !34
  %31 = getelementptr inbounds nuw i8, ptr %12, i64 36
  store i32 %30, ptr %31, align 4, !tbaa !34
  %32 = tail call i32 @av_frame_is_writable(ptr noundef %1) #7
  %.not = icmp eq i32 %32, 0
  br i1 %.not, label %33, label %43

33:                                               ; preds = %2
  %34 = getelementptr inbounds nuw i8, ptr %10, i64 40
  %35 = load i32, ptr %34, align 8, !tbaa !38
  %36 = getelementptr inbounds nuw i8, ptr %10, i64 44
  %37 = load i32, ptr %36, align 4, !tbaa !39
  %38 = tail call ptr @ff_get_video_buffer(ptr noundef %10, i32 noundef %35, i32 noundef %37) #7
  store ptr %38, ptr %5, align 8, !tbaa !4
  %.not45 = icmp eq ptr %38, null
  br i1 %.not45, label %58, label %39

39:                                               ; preds = %33
  %40 = tail call i32 @av_frame_copy_props(ptr noundef nonnull %38, ptr noundef %1) #7
  %41 = icmp slt i32 %40, 0
  br i1 %41, label %42, label %43

42:                                               ; preds = %39
  call void @av_frame_free(ptr noundef nonnull %5) #7
  br label %58

43:                                               ; preds = %2, %39
  %44 = phi ptr [ %38, %39 ], [ %1, %2 ]
  %45 = getelementptr inbounds nuw i8, ptr %4, i64 8
  store ptr %44, ptr %45, align 8, !tbaa !40
  store ptr %1, ptr %4, align 8, !tbaa !42
  %46 = getelementptr inbounds nuw i8, ptr %12, i64 92
  %47 = load i32, ptr %46, align 4, !tbaa !34
  %48 = load i32, ptr %29, align 4, !tbaa !34
  %49 = add i32 %47, -1
  %50 = add i32 %49, %48
  %51 = sdiv i32 %50, %48
  %52 = tail call i32 @ff_filter_get_nb_threads(ptr noundef nonnull %7) #8
  %. = tail call i32 @llvm.smin.i32(i32 %51, i32 %52)
  %53 = call i32 @ff_filter_execute(ptr noundef nonnull %7, ptr noundef nonnull @pixelize_slice, ptr noundef nonnull %4, ptr noundef null, i32 noundef %.) #7
  %54 = load ptr, ptr %3, align 8, !tbaa !4
  %.not46 = icmp eq ptr %44, %54
  br i1 %.not46, label %56, label %55

55:                                               ; preds = %43
  call void @av_frame_free(ptr noundef nonnull %3) #7
  br label %56

56:                                               ; preds = %55, %43
  %57 = call i32 @ff_filter_frame(ptr noundef %10, ptr noundef %44) #7
  br label %59

58:                                               ; preds = %33, %42
  %.0 = phi i32 [ %40, %42 ], [ -12, %33 ]
  call void @av_frame_free(ptr noundef nonnull %3) #7
  br label %59

59:                                               ; preds = %58, %56
  %.038 = phi i32 [ %57, %56 ], [ %.0, %58 ]
  call void @llvm.lifetime.end.p0(i64 8, ptr nonnull %5) #7
  call void @llvm.lifetime.end.p0(i64 16, ptr nonnull %4) #7
  ret i32 %.038
}